; Function Attrs: mustprogress uwtable
define hidden { i64, i64 } @_ZN5boost9iostreams6detail20file_descriptor_impl4seekElSt12_Ios_Seekdir(ptr nocapture noundef nonnull readonly align 4 dereferenceable(8) %0, i64 noundef %1, i32 noundef %2) local_unnamed_addr #3 align 2 personality ptr @__gxx_personality_v0 {
  %4 = alloca %"class.std::ios_base::failure", align 8
  %5 = load i32, ptr %0, align 4, !tbaa !3
  %6 = icmp eq i32 %2, 0
  %7 = icmp eq i32 %2, 1
  %8 = select i1 %7, i32 1, i32 2
  %9 = select i1 %6, i32 0, i32 %8
  %10 = tail call i64 @lseek64(i32 noundef %5, i64 noundef %1, i32 noundef %9) #28
  %11 = icmp eq i64 %10, -1
  br i1 %11, label %12, label %16

12:                                               ; preds = %3
  call void @llvm.lifetime.start.p0(i64 32, ptr nonnull %4) #28
  call void @_ZN5boost9iostreams6detail14system_failureB5cxx11EPKc(ptr dead_on_unwind nonnull writable sret(%"class.std::ios_base::failure") align 8 %4, ptr noundef nonnull @.str.6)
  invoke void @_ZN5boost15throw_exceptionINSt8ios_base7failureB5cxx11EEEvRKT_(ptr noundef nonnull align 8 dereferenceable(32) %4) #29
          to label %13 unwind label %14

13:                                               ; preds = %12
  unreachable

14:                                               ; preds = %12
  %15 = landingpad { ptr, i32 }
          cleanup
  call void @_ZNSt8ios_base7failureB5cxx11D1Ev(ptr noundef nonnull align 8 dereferenceable(32) %4) #28
  call void @llvm.lifetime.end.p0(i64 32, ptr nonnull %4) #28
  resume { ptr, i32 } %15

16:                                               ; preds = %3
  %.fca.0.insert.i = insertvalue { i64, i64 } poison, i64 %10, 0
  %.fca.1.insert.i = insertvalue { i64, i64 } %.fca.0.insert.i, i64 0, 1
  ret { i64, i64 } %.fca.1.insert.i
}